target datalayout = "e-m:e-p270:32:32-p271:32:32-p272:64:64-i64:64-i128:128-f80:128-n8:16:32:64-S128"
target triple = "x86_64-pc-linux-gnu"

%struct.DefElem = type { i32, ptr, ptr, ptr, i32, i32 }
%struct.Node = type { i32 }
%union.ListCell = type { ptr }
%struct.ForEachState = type { ptr, i32 }
%struct.List = type { i32, i32, i32, ptr, [0 x %union.ListCell] }

@.str = private unnamed_addr constant [24 x i8] c"%s requires a parameter\00", align 1
@.str.1 = private unnamed_addr constant [9 x i8] c"define.c\00", align 1
@.str.6 = private unnamed_addr constant [27 x i8] c"unrecognized node type: %d\00", align 1
@__func__.defGetStringList = private unnamed_addr constant [17 x i8] c"defGetStringList\00", align 1
@.str.16 = private unnamed_addr constant [38 x i8] c"unexpected node type in name list: %d\00", align 1

; Function Attrs: nounwind uwtable
define dso_local ptr @defGetStringList(ptr noundef %0) #0 {
  %2 = alloca ptr, align 8
  %3 = alloca ptr, align 8
  %4 = alloca %struct.ForEachState, align 8
  %5 = alloca ptr, align 8
  store ptr %0, ptr %2, align 8
  call void @llvm.lifetime.start.p0(i64 8, ptr %3) #11
  %6 = load ptr, ptr %2, align 8
  %7 = getelementptr inbounds nuw %struct.DefElem, ptr %6, i32 0, i32 3
  %8 = load ptr, ptr %7, align 8
  %9 = icmp eq ptr %8, null
  br i1 %9, label %10, label %25

10:                                               ; preds = %1
  br label %11

11:                                               ; preds = %10
  br i1 true, label %12, label %14

12:                                               ; preds = %11
  %13 = call zeroext i1 @errstart_cold(i32 noundef 21, ptr noundef null) #9
  br i1 %13, label %16, label %22

14:                                               ; preds = %11
  %15 = call zeroext i1 @errstart(i32 noundef 21, ptr noundef null)
  br i1 %15, label %16, label %22

16:                                               ; preds = %14, %12
  %17 = call i32 @errcode(i32 noundef 16801924)
  %18 = load ptr, ptr %2, align 8
  %19 = getelementptr inbounds nuw %struct.DefElem, ptr %18, i32 0, i32 2
  %20 = load ptr, ptr %19, align 8
  %21 = call i32 (ptr, ...) @errmsg(ptr noundef @.str, ptr noundef %20)
  call void @errfinish(ptr noundef @.str.1, i32 noundef 351, ptr noundef @__func__.defGetStringList)
  br label %22

22:                                               ; preds = %16, %14, %12
  unreachable

23:                                               ; No predecessors!
  br label %24

24:                                               ; preds = %23
  br label %25

25:                                               ; preds = %24, %1
  %26 = load ptr, ptr %2, align 8
  %27 = getelementptr inbounds nuw %struct.DefElem, ptr %26, i32 0, i32 3
  %28 = load ptr, ptr %27, align 8
  %29 = getelementptr inbounds nuw %struct.Node, ptr %28, i32 0, i32 0
  %30 = load i32, ptr %29, align 4
  %31 = icmp ne i32 %30, 1
  br i1 %31, label %32, label %48

32:                                               ; preds = %25
  br label %33

33:                                               ; preds = %32
  br i1 true, label %34, label %36

34:                                               ; preds = %33
  %35 = call zeroext i1 @errstart_cold(i32 noundef 21, ptr noundef null) #9
  br i1 %35, label %38, label %45

36:                                               ; preds = %33
  %37 = call zeroext i1 @errstart(i32 noundef 21, ptr noundef null)
  br i1 %37, label %38, label %45

38:                                               ; preds = %36, %34
  %39 = load ptr, ptr %2, align 8
  %40 = getelementptr inbounds nuw %struct.DefElem, ptr %39, i32 0, i32 3
  %41 = load ptr, ptr %40, align 8
  %42 = getelementptr inbounds nuw %struct.Node, ptr %41, i32 0, i32 0
  %43 = load i32, ptr %42, align 4
  %44 = call i32 (ptr, ...) @errmsg_internal(ptr noundef @.str.6, i32 noundef %43)
  call void @errfinish(ptr noundef @.str.1, i32 noundef 353, ptr noundef @__func__.defGetStringList)
  br label %45

45:                                               ; preds = %38, %36, %34
  unreachable

46:                                               ; No predecessors!
  br label %47

47:                                               ; preds = %46
  br label %48

48:                                               ; preds = %47, %25
  call void @llvm.lifetime.start.p0(i64 16, ptr %4) #11
  %49 = getelementptr inbounds nuw %struct.ForEachState, ptr %4, i32 0, i32 0
  %50 = load ptr, ptr %2, align 8
  %51 = getelementptr inbounds nuw %struct.DefElem, ptr %50, i32 0, i32 3
  %52 = load ptr, ptr %51, align 8
  store ptr %52, ptr %49, align 8
  %53 = getelementptr inbounds nuw %struct.ForEachState, ptr %4, i32 0, i32 1
  store i32 0, ptr %53, align 8
  %54 = getelementptr i8, ptr %4, i64 12
  call void @llvm.memset.p0.i64(ptr align 4 %54, i8 0, i64 4, i1 false)
  br label %55

55:                                               ; preds = %103, %48
  %56 = getelementptr inbounds nuw %struct.ForEachState, ptr %4, i32 0, i32 0
  %57 = load ptr, ptr %56, align 8
  %58 = icmp ne ptr %57, null
  br i1 %58, label %59, label %76

59:                                               ; preds = %55
  %60 = getelementptr inbounds nuw %struct.ForEachState, ptr %4, i32 0, i32 1
  %61 = load i32, ptr %60, align 8
  %62 = getelementptr inbounds nuw %struct.ForEachState, ptr %4, i32 0, i32 0
  %63 = load ptr, ptr %62, align 8
  %64 = getelementptr inbounds nuw %struct.List, ptr %63, i32 0, i32 1
  %65 = load i32, ptr %64, align 4
  %66 = icmp slt i32 %61, %65
  br i1 %66, label %67, label %76

67:                                               ; preds = %59
  %68 = getelementptr inbounds nuw %struct.ForEachState, ptr %4, i32 0, i32 0
  %69 = load ptr, ptr %68, align 8
  %70 = getelementptr inbounds nuw %struct.List, ptr %69, i32 0, i32 3
  %71 = load ptr, ptr %70, align 8
  %72 = getelementptr inbounds nuw %struct.ForEachState, ptr %4, i32 0, i32 1
  %73 = load i32, ptr %72, align 8
  %74 = sext i32 %73 to i64
  %75 = getelementptr inbounds %union.ListCell, ptr %71, i64 %74
  store ptr %75, ptr %3, align 8
  br label %77

76:                                               ; preds = %59, %55
  store ptr null, ptr %3, align 8
  br label %77

77:                                               ; preds = %76, %67
  %78 = phi i32 [ 1, %67 ], [ 0, %76 ]
  %79 = icmp ne i32 %78, 0
  br i1 %79, label %81, label %80

80:                                               ; preds = %77
  call void @llvm.lifetime.end.p0(i64 16, ptr %4) #11
  br label %107

81:                                               ; preds = %77
  call void @llvm.lifetime.start.p0(i64 8, ptr %5) #11
  %82 = load ptr, ptr %3, align 8
  %83 = load ptr, ptr %82, align 8
  store ptr %83, ptr %5, align 8
  %84 = load ptr, ptr %5, align 8
  %85 = getelementptr inbounds nuw %struct.Node, ptr %84, i32 0, i32 0
  %86 = load i32, ptr %85, align 4
  %87 = icmp eq i32 %86, 467
  br i1 %87, label %102, label %88

88:                                               ; preds = %81
  br label %89

89:                                               ; preds = %88
  br i1 true, label %90, label %92

90:                                               ; preds = %89
  %91 = call zeroext i1 @errstart_cold(i32 noundef 21, ptr noundef null) #9
  br i1 %91, label %94, label %99

92:                                               ; preds = %89
  %93 = call zeroext i1 @errstart(i32 noundef 21, ptr noundef null)
  br i1 %93, label %94, label %99

94:                                               ; preds = %92, %90
  %95 = load ptr, ptr %5, align 8
  %96 = getelementptr inbounds nuw %struct.Node, ptr %95, i32 0, i32 0
  %97 = load i32, ptr %96, align 4
  %98 = call i32 (ptr, ...) @errmsg_internal(ptr noundef @.str.16, i32 noundef %97)
  call void @errfinish(ptr noundef @.str.1, i32 noundef 361, ptr noundef @__func__.defGetStringList)
  br label %99

99:                                               ; preds = %94, %92, %90
  unreachable

100:                                              ; No predecessors!
  br label %101

101:                                              ; preds = %100
  br label %102

102:                                              ; preds = %101, %81
  call void @llvm.lifetime.end.p0(i64 8, ptr %5) #11
  br label %103

103:                                              ; preds = %102
  %104 = getelementptr inbounds nuw %struct.ForEachState, ptr %4, i32 0, i32 1
  %105 = load i32, ptr %104, align 8
  %106 = add i32 %105, 1
  store i32 %106, ptr %104, align 8
  br label %55, !llvm.loop !6

107:                                              ; preds = %80
  %108 = load ptr, ptr %2, align 8
  %109 = getelementptr inbounds nuw %struct.DefElem, ptr %108, i32 0, i32 3
  %110 = load ptr, ptr %109, align 8
  call void @llvm.lifetime.end.p0(i64 8, ptr %3) #11
  ret ptr %110
}