; Function Attrs: nounwind uwtable
define dso_local ptr @defGetStringList(ptr noundef readonly captures(none) %0) local_unnamed_addr #0 {
  %2 = getelementptr inbounds nuw i8, ptr %0, i64 24
  %3 = load ptr, ptr %2, align 8
  %4 = icmp eq ptr %3, null
  br i1 %4, label %5, label %11

5:                                                ; preds = %1
  %6 = tail call zeroext i1 @errstart_cold(i32 noundef 21, ptr noundef null) #6
  tail call void @llvm.assume(i1 %6)
  %7 = tail call i32 @errcode(i32 noundef 16801924) #7
  %8 = getelementptr inbounds nuw i8, ptr %0, i64 16
  %9 = load ptr, ptr %8, align 8
  %10 = tail call i32 (ptr, ...) @errmsg(ptr noundef nonnull @.str, ptr noundef %9) #7
  tail call void @errfinish(ptr noundef nonnull @.str.1, i32 noundef 351, ptr noundef nonnull @__func__.defGetStringList) #7
  unreachable

11:                                               ; preds = %1
  %12 = load i32, ptr %3, align 4
  %.not = icmp eq i32 %12, 1
  br i1 %.not, label %.preheader, label %17

.preheader:                                       ; preds = %11
  %13 = getelementptr inbounds nuw i8, ptr %3, i64 4
  %14 = load i32, ptr %13, align 4
  %.not1518 = icmp sgt i32 %14, 0
  br i1 %.not1518, label %.lr.ph, label %._crit_edge

.lr.ph:                                           ; preds = %.preheader
  %15 = getelementptr inbounds nuw i8, ptr %3, i64 16
  %16 = load ptr, ptr %15, align 8
  %wide.trip.count = zext nneg i32 %14 to i64
  br label %23

17:                                               ; preds = %11
  %18 = tail call zeroext i1 @errstart_cold(i32 noundef 21, ptr noundef null) #6
  tail call void @llvm.assume(i1 %18)
  %19 = load ptr, ptr %2, align 8
  %20 = load i32, ptr %19, align 4
  %21 = tail call i32 (ptr, ...) @errmsg_internal(ptr noundef nonnull @.str.6, i32 noundef %20) #7
  tail call void @errfinish(ptr noundef nonnull @.str.1, i32 noundef 353, ptr noundef nonnull @__func__.defGetStringList) #7
  unreachable

22:                                               ; preds = %23
  %indvars.iv.next = add nuw nsw i64 %indvars.iv, 1
  %exitcond.not = icmp eq i64 %indvars.iv.next, %wide.trip.count
  br i1 %exitcond.not, label %._crit_edge, label %23, !llvm.loop !6

._crit_edge:                                      ; preds = %22, %.preheader
  ret ptr %3

23:                                               ; preds = %.lr.ph, %22
  %indvars.iv = phi i64 [ 0, %.lr.ph ], [ %indvars.iv.next, %22 ]
  %24 = getelementptr inbounds nuw %union.ListCell, ptr %16, i64 %indvars.iv
  %25 = load ptr, ptr %24, align 8
  %26 = load i32, ptr %25, align 4
  %27 = icmp eq i32 %26, 467
  br i1 %27, label %22, label %28

28:                                               ; preds = %23
  %29 = tail call zeroext i1 @errstart_cold(i32 noundef 21, ptr noundef null) #6
  tail call void @llvm.assume(i1 %29)
  %30 = load i32, ptr %25, align 4
  %31 = tail call i32 (ptr, ...) @errmsg_internal(ptr noundef nonnull @.str.16, i32 noundef %30) #7
  tail call void @errfinish(ptr noundef nonnull @.str.1, i32 noundef 361, ptr noundef nonnull @__func__.defGetStringList) #7
  unreachable
}